; Function Attrs: mustprogress nounwind uwtable
define internal void @_ZN7rocksdb12_GLOBAL__N_115HashSkipListRep15DynamicIterator11SeekToFirstEv(ptr nocapture noundef nonnull align 8 dereferenceable(88) %this) unnamed_addr #0 align 2 {
entry:
  %own_list_.i = getelementptr inbounds i8, ptr %this, i64 32
  %0 = load i8, ptr %own_list_.i, align 8
  %1 = and i8 %0, 1
  %tobool.not.i = icmp eq i8 %1, 0
  br i1 %tobool.not.i, label %_ZN7rocksdb12_GLOBAL__N_115HashSkipListRep8Iterator5ResetEPNS_8SkipListIPKcRKNS_11MemTableRep13KeyComparatorEEE.exit, label %if.then.i

if.then.i:                                        ; preds = %entry
  %list_.i = getelementptr inbounds i8, ptr %this, i64 8
  %2 = load ptr, ptr %list_.i, align 8
  %isnull.i = icmp eq ptr %2, null
  br i1 %isnull.i, label %_ZN7rocksdb12_GLOBAL__N_115HashSkipListRep8Iterator5ResetEPNS_8SkipListIPKcRKNS_11MemTableRep13KeyComparatorEEE.exit, label %delete.notnull.i

delete.notnull.i:                                 ; preds = %if.then.i
  tail call void @_ZdlPv(ptr noundef nonnull %2) #20
  br label %_ZN7rocksdb12_GLOBAL__N_115HashSkipListRep8Iterator5ResetEPNS_8SkipListIPKcRKNS_11MemTableRep13KeyComparatorEEE.exit

_ZN7rocksdb12_GLOBAL__N_115HashSkipListRep8Iterator5ResetEPNS_8SkipListIPKcRKNS_11MemTableRep13KeyComparatorEEE.exit: ; preds = %entry, %if.then.i, %delete.notnull.i
  %list_2.i = getelementptr inbounds i8, ptr %this, i64 8
  tail call void @llvm.memset.p0.i64(ptr noundef nonnull align 8 dereferenceable(25) %list_2.i, i8 0, i64 25, i1 false)
  ret void
}